target datalayout = "e-m:e-p270:32:32-p271:32:32-p272:64:64-i64:64-i128:128-f80:128-n8:16:32:64-S128"
target triple = "x86_64-pc-linux-gnu"

%struct.SDL_EVDEV_keyboard_state = type { i32, i8, i32, ptr, [9 x i8], i8, i32, ptr, i32, i8, i8, i8, i8, i8, [128 x i8], i32, ptr, ptr, ptr, ptr }

; Function Attrs: nounwind uwtable
define internal void @put_queue(ptr noundef %0, i32 noundef %1) #0 {
  %3 = alloca ptr, align 8
  %4 = alloca i32, align 4
  store ptr %0, ptr %3, align 8
  store i32 %1, ptr %4, align 4
  %5 = load ptr, ptr %3, align 8
  %6 = getelementptr inbounds nuw %struct.SDL_EVDEV_keyboard_state, ptr %5, i32 0, i32 15
  %7 = load i32, ptr %6, align 4
  %8 = zext i32 %7 to i64
  %9 = icmp ult i64 %8, 127
  br i1 %9, label %10, label %21

10:                                               ; preds = %2
  %11 = load i32, ptr %4, align 4
  %12 = trunc i32 %11 to i8
  %13 = load ptr, ptr %3, align 8
  %14 = getelementptr inbounds nuw %struct.SDL_EVDEV_keyboard_state, ptr %13, i32 0, i32 14
  %15 = load ptr, ptr %3, align 8
  %16 = getelementptr inbounds nuw %struct.SDL_EVDEV_keyboard_state, ptr %15, i32 0, i32 15
  %17 = load i32, ptr %16, align 4
  %18 = add i32 %17, 1
  store i32 %18, ptr %16, align 4
  %19 = zext i32 %17 to i64
  %20 = getelementptr inbounds nuw [128 x i8], ptr %14, i64 0, i64 %19
  store i8 %12, ptr %20, align 1
  br label %21

21:                                               ; preds = %10, %2
  ret void
}

; Function Attrs: nounwind uwtable
define internal void @put_utf8(ptr noundef %0, i32 noundef %1) #0 {
  %3 = alloca ptr, align 8
  %4 = alloca i32, align 4
  store ptr %0, ptr %3, align 8
  store i32 %1, ptr %4, align 4
  %5 = load i32, ptr %4, align 4
  %6 = icmp ult i32 %5, 128
  br i1 %6, label %7, label %10

7:                                                ; preds = %2
  %8 = load ptr, ptr %3, align 8
  %9 = load i32, ptr %4, align 4
  call void @put_queue(ptr noundef %8, i32 noundef %9)
  br label %75

10:                                               ; preds = %2
  %11 = load i32, ptr %4, align 4
  %12 = icmp ult i32 %11, 2048
  br i1 %12, label %13, label %22

13:                                               ; preds = %10
  %14 = load ptr, ptr %3, align 8
  %15 = load i32, ptr %4, align 4
  %16 = lshr i32 %15, 6
  %17 = or i32 192, %16
  call void @put_queue(ptr noundef %14, i32 noundef %17)
  %18 = load ptr, ptr %3, align 8
  %19 = load i32, ptr %4, align 4
  %20 = and i32 %19, 63
  %21 = or i32 128, %20
  call void @put_queue(ptr noundef %18, i32 noundef %21)
  br label %74

22:                                               ; preds = %10
  %23 = load i32, ptr %4, align 4
  %24 = icmp ult i32 %23, 65536
  br i1 %24, label %25, label %50

25:                                               ; preds = %22
  %26 = load i32, ptr %4, align 4
  %27 = icmp uge i32 %26, 55296
  br i1 %27, label %28, label %32

28:                                               ; preds = %25
  %29 = load i32, ptr %4, align 4
  %30 = icmp ult i32 %29, 57344
  br i1 %30, label %31, label %32

31:                                               ; preds = %28
  br label %75

32:                                               ; preds = %28, %25
  %33 = load i32, ptr %4, align 4
  %34 = icmp eq i32 %33, 65535
  br i1 %34, label %35, label %36

35:                                               ; preds = %32
  br label %75

36:                                               ; preds = %32
  %37 = load ptr, ptr %3, align 8
  %38 = load i32, ptr %4, align 4
  %39 = lshr i32 %38, 12
  %40 = or i32 224, %39
  call void @put_queue(ptr noundef %37, i32 noundef %40)
  %41 = load ptr, ptr %3, align 8
  %42 = load i32, ptr %4, align 4
  %43 = lshr i32 %42, 6
  %44 = and i32 %43, 63
  %45 = or i32 128, %44
  call void @put_queue(ptr noundef %41, i32 noundef %45)
  %46 = load ptr, ptr %3, align 8
  %47 = load i32, ptr %4, align 4
  %48 = and i32 %47, 63
  %49 = or i32 128, %48
  call void @put_queue(ptr noundef %46, i32 noundef %49)
  br label %73

50:                                               ; preds = %22
  %51 = load i32, ptr %4, align 4
  %52 = icmp ult i32 %51, 1114112
  br i1 %52, label %53, label %72

53:                                               ; preds = %50
  %54 = load ptr, ptr %3, align 8
  %55 = load i32, ptr %4, align 4
  %56 = lshr i32 %55, 18
  %57 = or i32 240, %56
  call void @put_queue(ptr noundef %54, i32 noundef %57)
  %58 = load ptr, ptr %3, align 8
  %59 = load i32, ptr %4, align 4
  %60 = lshr i32 %59, 12
  %61 = and i32 %60, 63
  %62 = or i32 128, %61
  call void @put_queue(ptr noundef %58, i32 noundef %62)
  %63 = load ptr, ptr %3, align 8
  %64 = load i32, ptr %4, align 4
  %65 = lshr i32 %64, 6
  %66 = and i32 %65, 63
  %67 = or i32 128, %66
  call void @put_queue(ptr noundef %63, i32 noundef %67)
  %68 = load ptr, ptr %3, align 8
  %69 = load i32, ptr %4, align 4
  %70 = and i32 %69, 63
  %71 = or i32 128, %70
  call void @put_queue(ptr noundef %68, i32 noundef %71)
  br label %72

72:                                               ; preds = %53, %50
  br label %73

73:                                               ; preds = %72, %36
  br label %74

74:                                               ; preds = %73, %13
  br label %75

75:                                               ; preds = %31, %35, %74, %7
  ret void
}