; Function Attrs: mustprogress nofree norecurse nosync nounwind willreturn memory(argmem: readwrite) uwtable
define internal fastcc void @put_utf8(ptr noundef captures(none) %0, i32 noundef %1) unnamed_addr #8 {
  %3 = icmp ult i32 %1, 128
  br i1 %3, label %4, label %14

4:                                                ; preds = %2
  %5 = getelementptr inbounds nuw i8, ptr %0, i64 188
  %6 = load i32, ptr %5, align 4
  %7 = icmp ult i32 %6, 127
  br i1 %7, label %8, label %put_queue.exit

8:                                                ; preds = %4
  %9 = zext nneg i32 %6 to i64
  %10 = trunc nuw nsw i32 %1 to i8
  %11 = getelementptr inbounds nuw i8, ptr %0, i64 57
  %12 = add nuw nsw i32 %6, 1
  store i32 %12, ptr %5, align 4
  %13 = getelementptr inbounds nuw [128 x i8], ptr %11, i64 0, i64 %9
  store i8 %10, ptr %13, align 1
  br label %put_queue.exit

14:                                               ; preds = %2
  %15 = icmp ult i32 %1, 2048
  br i1 %15, label %16, label %35

16:                                               ; preds = %14
  %17 = getelementptr inbounds nuw i8, ptr %0, i64 188
  %18 = load i32, ptr %17, align 4
  %19 = icmp ult i32 %18, 127
  br i1 %19, label %put_queue.exit29, label %put_queue.exit

put_queue.exit29:                                 ; preds = %16
  %20 = lshr i32 %1, 6
  %21 = zext nneg i32 %18 to i64
  %22 = trunc nuw nsw i32 %20 to i8
  %23 = or disjoint i8 %22, -64
  %24 = getelementptr inbounds nuw i8, ptr %0, i64 57
  %25 = add nuw nsw i32 %18, 1
  store i32 %25, ptr %17, align 4
  %26 = getelementptr inbounds nuw [128 x i8], ptr %24, i64 0, i64 %21
  store i8 %23, ptr %26, align 1
  %.pr = load i32, ptr %17, align 4
  %27 = icmp ult i32 %.pr, 127
  br i1 %27, label %28, label %put_queue.exit

28:                                               ; preds = %put_queue.exit29
  %29 = zext nneg i32 %.pr to i64
  %30 = trunc i32 %1 to i8
  %31 = and i8 %30, 63
  %32 = or disjoint i8 %31, -128
  %33 = add nuw nsw i32 %.pr, 1
  store i32 %33, ptr %17, align 4
  %34 = getelementptr inbounds nuw [128 x i8], ptr %24, i64 0, i64 %29
  store i8 %32, ptr %34, align 1
  br label %put_queue.exit

35:                                               ; preds = %14
  %36 = icmp ult i32 %1, 65536
  br i1 %36, label %37, label %67

37:                                               ; preds = %35
  %38 = and i32 %1, 63488
  %or.cond = icmp eq i32 %38, 55296
  %39 = icmp eq i32 %1, 65535
  %or.cond3 = or i1 %39, %or.cond
  br i1 %or.cond3, label %put_queue.exit, label %40

40:                                               ; preds = %37
  %41 = getelementptr inbounds nuw i8, ptr %0, i64 188
  %42 = load i32, ptr %41, align 4
  %43 = icmp ult i32 %42, 127
  br i1 %43, label %put_queue.exit31, label %put_queue.exit

put_queue.exit31:                                 ; preds = %40
  %44 = lshr i32 %1, 12
  %45 = zext nneg i32 %42 to i64
  %46 = trunc nuw nsw i32 %44 to i8
  %47 = or disjoint i8 %46, -32
  %48 = getelementptr inbounds nuw i8, ptr %0, i64 57
  %49 = add nuw nsw i32 %42, 1
  store i32 %49, ptr %41, align 4
  %50 = getelementptr inbounds nuw [128 x i8], ptr %48, i64 0, i64 %45
  store i8 %47, ptr %50, align 1
  %.pr38 = load i32, ptr %41, align 4
  %51 = icmp ult i32 %.pr38, 127
  br i1 %51, label %put_queue.exit32, label %put_queue.exit

put_queue.exit32:                                 ; preds = %put_queue.exit31
  %52 = lshr i32 %1, 6
  %53 = zext nneg i32 %.pr38 to i64
  %54 = trunc i32 %52 to i8
  %55 = and i8 %54, 63
  %56 = or disjoint i8 %55, -128
  %57 = add nuw nsw i32 %.pr38, 1
  store i32 %57, ptr %41, align 4
  %58 = getelementptr inbounds nuw [128 x i8], ptr %48, i64 0, i64 %53
  store i8 %56, ptr %58, align 1
  %.pr39 = load i32, ptr %41, align 4
  %59 = icmp ult i32 %.pr39, 127
  br i1 %59, label %60, label %put_queue.exit

60:                                               ; preds = %put_queue.exit32
  %61 = zext nneg i32 %.pr39 to i64
  %62 = trunc i32 %1 to i8
  %63 = and i8 %62, 63
  %64 = or disjoint i8 %63, -128
  %65 = add nuw nsw i32 %.pr39, 1
  store i32 %65, ptr %41, align 4
  %66 = getelementptr inbounds nuw [128 x i8], ptr %48, i64 0, i64 %61
  store i8 %64, ptr %66, align 1
  br label %put_queue.exit

67:                                               ; preds = %35
  %68 = icmp ult i32 %1, 1114112
  br i1 %68, label %69, label %put_queue.exit

69:                                               ; preds = %67
  %70 = getelementptr inbounds nuw i8, ptr %0, i64 188
  %71 = load i32, ptr %70, align 4
  %72 = icmp ult i32 %71, 127
  br i1 %72, label %put_queue.exit34, label %put_queue.exit

put_queue.exit34:                                 ; preds = %69
  %73 = lshr i32 %1, 18
  %74 = zext nneg i32 %71 to i64
  %75 = trunc nuw nsw i32 %73 to i8
  %76 = or disjoint i8 %75, -16
  %77 = getelementptr inbounds nuw i8, ptr %0, i64 57
  %78 = add nuw nsw i32 %71, 1
  store i32 %78, ptr %70, align 4
  %79 = getelementptr inbounds nuw [128 x i8], ptr %77, i64 0, i64 %74
  store i8 %76, ptr %79, align 1
  %.pr40 = load i32, ptr %70, align 4
  %80 = icmp ult i32 %.pr40, 127
  br i1 %80, label %put_queue.exit35, label %put_queue.exit

put_queue.exit35:                                 ; preds = %put_queue.exit34
  %81 = lshr i32 %1, 12
  %82 = zext nneg i32 %.pr40 to i64
  %83 = trunc i32 %81 to i8
  %84 = and i8 %83, 63
  %85 = or disjoint i8 %84, -128
  %86 = add nuw nsw i32 %.pr40, 1
  store i32 %86, ptr %70, align 4
  %87 = getelementptr inbounds nuw [128 x i8], ptr %77, i64 0, i64 %82
  store i8 %85, ptr %87, align 1
  %.pr41 = load i32, ptr %70, align 4
  %88 = icmp ult i32 %.pr41, 127
  br i1 %88, label %put_queue.exit36, label %put_queue.exit

put_queue.exit36:                                 ; preds = %put_queue.exit35
  %89 = lshr i32 %1, 6
  %90 = zext nneg i32 %.pr41 to i64
  %91 = trunc i32 %89 to i8
  %92 = and i8 %91, 63
  %93 = or disjoint i8 %92, -128
  %94 = add nuw nsw i32 %.pr41, 1
  store i32 %94, ptr %70, align 4
  %95 = getelementptr inbounds nuw [128 x i8], ptr %77, i64 0, i64 %90
  store i8 %93, ptr %95, align 1
  %.pr42.pr = load i32, ptr %70, align 4
  %96 = icmp ult i32 %.pr42.pr, 127
  br i1 %96, label %97, label %put_queue.exit

97:                                               ; preds = %put_queue.exit36
  %98 = zext nneg i32 %.pr42.pr to i64
  %99 = trunc i32 %1 to i8
  %100 = and i8 %99, 63
  %101 = or disjoint i8 %100, -128
  %102 = add nuw nsw i32 %.pr42.pr, 1
  store i32 %102, ptr %70, align 4
  %103 = getelementptr inbounds nuw [128 x i8], ptr %77, i64 0, i64 %98
  store i8 %101, ptr %103, align 1
  br label %put_queue.exit

put_queue.exit:                                   ; preds = %put_queue.exit34, %69, %put_queue.exit35, %40, %put_queue.exit31, %16, %97, %put_queue.exit36, %60, %put_queue.exit32, %28, %put_queue.exit29, %8, %4, %67, %37
  ret void
}